     1 00000000                                 ;hello-os
     2 00000000                                 ;TAB = 4
     3  = 0000000A                              CYLS equ 10
     4 00000000                                 
     5                                          org 0x7c00
     6 00007C00                                 
     7 00007C00 EB 4E                           jmp entry
     8 00007C02 90                              DB 0x90
     9 00007C03 48 45 4C 4C 4F 49 50 4C         DB "HELLOIPL"		;開機磁區名稱
    10 00007C0B 0200                            DW 512				;磁區大小
    11 00007C0D 01                              DB 1				;叢集大小
    12 00007C0E 0001                            DW 1				;FAT開始磁區
    13 00007C10 02                              DB 2				;FAT個數
    14 00007C11 00E0                            DW 224				;根目錄範圍大小
    15 00007C13 0B40                            DW 2880				;磁碟機大小
    16 00007C15 F0                              DB 0xf0				;媒體格式
    17 00007C16 0009                            DW 9				;FAT區域範圍長度
    18 00007C18 0012                            DW 18				;一磁軌的磁區數
    19 00007C1A 0002                            DW 2				;詞頭個數
    20 00007C1C 00000000                        DD 0				;不使用磁碟分割
    21 00007C20 00000B40                        DD 2880				;磁碟機大小
    22 00007C24 00 00 29                        DB 0,0,0x29
    23 00007C27 FFFFFFFF                        DD 0xffffffff		;磁碟區序號
    24 00007C2B 48 45 4C 4C 4F 2D 4F 53 20 20   DB "HELLO-OS   "	;磁碟片名稱
       00007C35 20 
    25 00007C36 46 41 54 31 32 20 20 20         DB "FAT12   "		;格式名稱
    26 00007C3E 00 00 00 00 00 00 00 00 00 00   RESB 18				;空出18個bytes
       00007C48 00 00 00 00 00 00 00 00 
    27 00007C50                                 
    28 00007C50                                 ;程式碼本身
    29 00007C50                                 
    30 00007C50                                 entry:
    31 00007C50 B8 0000                         		mov ax,0
    32 00007C53 8E D0                           		mov ss,ax
    33 00007C55 BC 7C00                         		mov sp,0x7c00
    34 00007C58 8E D8                           		mov ds,ax
    35 00007C5A                                 		
    36 00007C5A B8 0820                         		mov ax,0x0820
    37 00007C5D 8E C0                           		mov es,ax
    38 00007C5F B5 00                           		mov ch,0		;磁柱0
    39 00007C61 B6 00                           		mov dh,0		;磁頭0
    40 00007C63 B1 02                           		mov cl,2		;磁區2
    41 00007C65                                 		
    42 00007C65                                 readloop:
    43 00007C65 BE 0000                         		mov si,0		;計數器
    44 00007C68                                 		
    45 00007C68                                 ;重複嘗試讀入磁碟片5次
    46 00007C68                                 retry:
    47 00007C68 B4 02                           		mov ah,0x02		;讀入磁碟片
    48 00007C6A B0 01                           		mov al,1		;磁區1
    49 00007C6C BB 0000                         		mov bx,0
    50 00007C6F B2 00                           		mov dl,0x00		;A磁碟機
    51 00007C71 CD 13                           		int 0x13		;call BIOS
    52 00007C73 73 0E                           		jnc next		
    53 00007C75 46                              		inc si
    54 00007C76 83 FE 05                        		cmp si,5
    55 00007C79 73 2B                           		jae error		;超過5次就跳error
    56 00007C7B B4 00                           		mov ah,0x00
    57 00007C7D B2 00                           		mov dl,0x00		;磁碟機重設
    58 00007C7F CD 13                           		int 0x13		;call BIOS 
    59 00007C81 EB E5                           		jmp retry
    60 00007C83                                 
    61 00007C83                                 next:
    62 00007C83 8C C0                           		mov ax,es
    63 00007C85                                 		add ax,0x0020h	;再往後推0x20h bytes，即512/16
      >> [ERROR #002] parameter error.
    64 00007C85 8E C0                           		mov es,ax		;es 沒有 add，所以必須這麼做
    65 00007C87 80 C1 01                        		add cl,1
    66 00007C8A 80 F9 12                        		cmp cl,18		;看讀了18個磁區沒
    67 00007C8D 76 D6                           		jbe readloop
    68 00007C8F B1 01                           		mov cl,1
    69 00007C91 80 C6 01                        		add dh,1
    70 00007C94 80 FE 02                        		cmp dh,2
    71 00007C97 72 CC                           		jb readloop		;如果 DH <= 2 就到readloop
    72 00007C99 B6 00                           		mov dh,0
    73 00007C9B 80 C5 01                        		add ch,1
    74 00007C9E 80 FD 0A                        		cmp ch,CYLS
    75 00007CA1 72 C2                           		jb readloop
    76 00007CA3                                 fin:
    77 00007CA3 F4                              		hlt
    78 00007CA4 EB FD                           		jmp fin		
    79 00007CA6                                 		
    80 00007CA6                                 error:
    81 00007CA6 BE 7CB9                         		mov si,msg
    82 00007CA9                                 		
    83 00007CA9                                 putloop:
    84 00007CA9 8A 04                           		mov al,[si]
    85 00007CAB 46                              		inc si
    86 00007CAC 3C 00                           		cmp al,0
    87 00007CAE 74 F3                           		je fin
    88 00007CB0 B4 0E                           		mov ah,0x0e
    89 00007CB2 BB 000F                         		mov bx,15
    90 00007CB5 CD 10                           		int 0x10			;呼叫視訊BIOS
    91 00007CB7 EB F0                           		jmp putloop
    92 00007CB9                                 		
    93 00007CB9                                 msg:
    94 00007CB9 0A 0A                           		DB 0x0a,0x0a		;兩個換行
    95 00007CBB 6C 6F 61 64 20 65 72 72 6F 72   		DB "load error"
    96 00007CC5 0A                              		DB 0x0a
    97 00007CC6 00                              		DB 0
    98 00007CC7                                 		
    99 00007CC7 00 00 00 00 00 00 00 00 00 00   RESB 0x7dfe-$
       00007CD1 00 00 00 00 00 00 00 00 00 00 
       00007CDB 00 00 00 00 00 00 00 00 00 00 
       00007CE5 00 00 00 00 00 00 00 00 00 00 
       00007CEF 00 00 00 00 00 00 00 00 00 00 
       00007CF9 00 00 00 00 00 00 00 00 00 00 
       00007D03 00 00 00 00 00 00 00 00 00 00 
       00007D0D 00 00 00 00 00 00 00 00 00 00 
       00007D17 00 00 00 00 00 00 00 00 00 00 
       00007D21 00 00 00 00 00 00 00 00 00 00 
       00007D2B 00 00 00 00 00 00 00 00 00 00 
       00007D35 00 00 00 00 00 00 00 00 00 00 
       00007D3F 00 00 00 00 00 00 00 00 00 00 
       00007D49 00 00 00 00 00 00 00 00 00 00 
       00007D53 00 00 00 00 00 00 00 00 00 00 
       00007D5D 00 00 00 00 00 00 00 00 00 00 
       00007D67 00 00 00 00 00 00 00 00 00 00 
       00007D71 00 00 00 00 00 00 00 00 00 00 
       00007D7B 00 00 00 00 00 00 00 00 00 00 
       00007D85 00 00 00 00 00 00 00 00 00 00 
       00007D8F 00 00 00 00 00 00 00 00 00 00 
       00007D99 00 00 00 00 00 00 00 00 00 00 
       00007DA3 00 00 00 00 00 00 00 00 00 00 
       00007DAD 00 00 00 00 00 00 00 00 00 00 
       00007DB7 00 00 00 00 00 00 00 00 00 00 
       00007DC1 00 00 00 00 00 00 00 00 00 00 
       00007DCB 00 00 00 00 00 00 00 00 00 00 
       00007DD5 00 00 00 00 00 00 00 00 00 00 
       00007DDF 00 00 00 00 00 00 00 00 00 00 
       00007DE9 00 00 00 00 00 00 00 00 00 00 
       00007DF3 00 00 00 00 00 00 00 00 00 00 
       00007DFD 00 
   100 00007DFE                                 
   101 00007DFE 55 AA                           DB 0x55,0xaa